; Function Attrs: nofree norecurse nosync nounwind memory(readwrite, inaccessiblemem: none) uwtable
define noundef i32 @H5VM_hyper_fill(i32 noundef %0, ptr noundef readonly %1, ptr nocapture noundef readonly %2, ptr noundef %3, ptr nocapture noundef writeonly %4, i32 noundef %5) local_unnamed_addr #2 {
  %7 = alloca [33 x i64], align 16
  %8 = alloca [33 x i64], align 16
  %9 = alloca [33 x i64], align 16
  %.not = icmp eq ptr %1, null
  %10 = zext i32 %0 to i64
  %11 = shl nuw nsw i64 %10, 3
  br i1 %.not, label %13, label %12

12:                                               ; preds = %6
  call void @llvm.memcpy.p0.p0.i64(ptr nonnull align 16 %8, ptr nonnull align 8 %1, i64 %11, i1 false)
  br label %14

13:                                               ; preds = %6
  call void @llvm.memset.p0.i64(ptr nonnull align 16 %8, i8 0, i64 %11, i1 false)
  br label %14

14:                                               ; preds = %12, %13
  %15 = call i64 @H5VM_hyper_stride(i32 noundef %0, ptr noundef nonnull %8, ptr noundef %2, ptr noundef %3, ptr noundef nonnull %9)
  %.not21.i = icmp eq i32 %0, 0
  br i1 %.not21.i, label %.lr.ph46.thread.i, label %.lr.ph.i.preheader

.lr.ph.i.preheader:                               ; preds = %14
  %16 = add i32 %0, -1
  %17 = zext i32 %16 to i64
  %18 = getelementptr inbounds i64, ptr %9, i64 %17
  %19 = load i64, ptr %18, align 8
  %20 = icmp eq i64 %19, 1
  br i1 %20, label %.lr.ph.preheader, label %H5VM__stride_optimize1.exit

.lr.ph.preheader:                                 ; preds = %.lr.ph.i.preheader
  %21 = zext i32 %0 to i64
  br label %.lr.ph

.lr.ph:                                           ; preds = %.lr.ph.preheader, %.lr.ph.i
  %indvars.iv = phi i64 [ %21, %.lr.ph.preheader ], [ %27, %.lr.ph.i ]
  %22 = phi i64 [ 1, %.lr.ph.preheader ], [ %26, %.lr.ph.i ]
  %23 = phi i64 [ %17, %.lr.ph.preheader ], [ %34, %.lr.ph.i ]
  %24 = getelementptr inbounds i64, ptr %8, i64 %23
  %25 = load i64, ptr %24, align 8
  %26 = mul i64 %25, %22
  %27 = add nsw i64 %indvars.iv, -1
  %.not20.i.wide = icmp eq i64 %27, 0
  br i1 %.not20.i.wide, label %.lr.ph46.thread.i, label %.lr.ph.i

.lr.ph.i:                                         ; preds = %.lr.ph
  %28 = getelementptr inbounds i64, ptr %8, i64 %27
  %29 = load i64, ptr %28, align 8
  %30 = getelementptr inbounds i64, ptr %9, i64 %27
  %31 = load i64, ptr %30, align 8
  %32 = mul i64 %31, %29
  %33 = add i64 %indvars.iv, 4294967294
  %34 = and i64 %33, 4294967295
  %35 = getelementptr inbounds i64, ptr %9, i64 %34
  %36 = load i64, ptr %35, align 8
  %37 = add i64 %36, %32
  store i64 %37, ptr %35, align 8
  %.not19.i = icmp ne i64 %37, 0
  %38 = icmp eq i64 %37, %26
  %or.cond = select i1 %.not19.i, i1 %38, i1 false
  br i1 %or.cond, label %.lr.ph, label %H5VM__stride_optimize1.exit.loopexit

H5VM__stride_optimize1.exit.loopexit:             ; preds = %.lr.ph.i
  %39 = trunc i64 %27 to i32
  br label %H5VM__stride_optimize1.exit

H5VM__stride_optimize1.exit:                      ; preds = %H5VM__stride_optimize1.exit.loopexit, %.lr.ph.i.preheader
  %.017.lcssa = phi i32 [ %0, %.lr.ph.i.preheader ], [ %39, %H5VM__stride_optimize1.exit.loopexit ]
  %.0.lcssa = phi i64 [ 1, %.lr.ph.i.preheader ], [ %26, %H5VM__stride_optimize1.exit.loopexit ]
  call void @llvm.lifetime.start.p0(i64 264, ptr nonnull %7)
  %40 = zext i32 %.017.lcssa to i64
  %41 = shl nuw nsw i64 %40, 3
  call void @llvm.memcpy.p0.p0.i64(ptr nonnull align 16 %7, ptr nonnull readonly align 16 %8, i64 %41, i1 false)
  br label %.lr.ph.i.i

.lr.ph46.thread.i:                                ; preds = %.lr.ph, %14
  %.1.ph = phi i64 [ 1, %14 ], [ %26, %.lr.ph ]
  %42 = getelementptr inbounds i8, ptr %4, i64 %15
  call void @llvm.lifetime.start.p0(i64 264, ptr nonnull %7)
  %43 = trunc i32 %5 to i8
  br label %.lr.ph46.split.preheader.i

.lr.ph.i.i:                                       ; preds = %H5VM__stride_optimize1.exit, %.lr.ph.i.i
  %.011.i.i = phi i64 [ %47, %.lr.ph.i.i ], [ 1, %H5VM__stride_optimize1.exit ]
  %.0610.i.i = phi ptr [ %45, %.lr.ph.i.i ], [ %8, %H5VM__stride_optimize1.exit ]
  %.079.i.i = phi i32 [ %44, %.lr.ph.i.i ], [ %.017.lcssa, %H5VM__stride_optimize1.exit ]
  %44 = add i32 %.079.i.i, -1
  %45 = getelementptr inbounds i8, ptr %.0610.i.i, i64 8
  %46 = load i64, ptr %.0610.i.i, align 8
  %47 = mul i64 %46, %.011.i.i
  %.not.i.i = icmp eq i32 %44, 0
  br i1 %.not.i.i, label %H5VM_vector_reduce_product.exit.i, label %.lr.ph.i.i

H5VM_vector_reduce_product.exit.i:                ; preds = %.lr.ph.i.i
  %48 = getelementptr inbounds i8, ptr %4, i64 %15
  %.not48.i = icmp eq i64 %47, 0
  br i1 %.not48.i, label %H5VM_stride_fill.exit, label %.lr.ph46.i

.lr.ph46.i:                                       ; preds = %H5VM_vector_reduce_product.exit.i
  %49 = trunc i32 %5 to i8
  %.02340.i = add i32 %.017.lcssa, -1
  %50 = icmp sgt i32 %.02340.i, -1
  br i1 %50, label %.lr.ph.us.preheader.i, label %.lr.ph46.split.preheader.i

.lr.ph46.split.preheader.i:                       ; preds = %.lr.ph46.i, %.lr.ph46.thread.i
  %51 = phi ptr [ %42, %.lr.ph46.thread.i ], [ %48, %.lr.ph46.i ]
  %.121 = phi i64 [ %.1.ph, %.lr.ph46.thread.i ], [ %.0.lcssa, %.lr.ph46.i ]
  %52 = phi i8 [ %43, %.lr.ph46.thread.i ], [ %49, %.lr.ph46.i ]
  %phi.call5457.i = phi i64 [ 1, %.lr.ph46.thread.i ], [ %47, %.lr.ph46.i ]
  br label %.lr.ph46.split.i

.lr.ph.us.preheader.i:                            ; preds = %.lr.ph46.i
  %53 = zext nneg i32 %.02340.i to i64
  br label %.lr.ph.us.i

.lr.ph.us.i:                                      ; preds = %._crit_edge.us.i, %.lr.ph.us.preheader.i
  %.02445.us.i = phi i64 [ %65, %._crit_edge.us.i ], [ 0, %.lr.ph.us.preheader.i ]
  %.02544.us.i = phi ptr [ %57, %._crit_edge.us.i ], [ %48, %.lr.ph.us.preheader.i ]
  tail call void @llvm.memset.p0.i64(ptr align 1 %.02544.us.i, i8 %49, i64 %.0.lcssa, i1 false)
  br label %54

54:                                               ; preds = %61, %.lr.ph.us.i
  %indvars.iv.i = phi i64 [ %53, %.lr.ph.us.i ], [ %indvars.iv.next.i, %61 ]
  %.12641.us.i = phi ptr [ %.02544.us.i, %.lr.ph.us.i ], [ %57, %61 ]
  %55 = getelementptr inbounds i64, ptr %9, i64 %indvars.iv.i
  %56 = load i64, ptr %55, align 8
  %57 = getelementptr inbounds i8, ptr %.12641.us.i, i64 %56
  %58 = getelementptr inbounds [33 x i64], ptr %7, i64 0, i64 %indvars.iv.i
  %59 = load i64, ptr %58, align 8
  %60 = add i64 %59, -1
  store i64 %60, ptr %58, align 8
  %.not30.us.i = icmp eq i64 %60, 0
  br i1 %.not30.us.i, label %61, label %._crit_edge.us.i

61:                                               ; preds = %54
  %62 = getelementptr inbounds i64, ptr %8, i64 %indvars.iv.i
  %63 = load i64, ptr %62, align 8
  store i64 %63, ptr %58, align 8
  %indvars.iv.next.i = add nsw i64 %indvars.iv.i, -1
  %64 = icmp sgt i64 %indvars.iv.i, 0
  br i1 %64, label %54, label %._crit_edge.us.i

._crit_edge.us.i:                                 ; preds = %61, %54
  %65 = add nuw i64 %.02445.us.i, 1
  %exitcond51.not.i = icmp eq i64 %65, %47
  br i1 %exitcond51.not.i, label %H5VM_stride_fill.exit, label %.lr.ph.us.i

.lr.ph46.split.i:                                 ; preds = %.lr.ph46.split.i, %.lr.ph46.split.preheader.i
  %.02445.i = phi i64 [ %66, %.lr.ph46.split.i ], [ 0, %.lr.ph46.split.preheader.i ]
  tail call void @llvm.memset.p0.i64(ptr writeonly align 1 %51, i8 %52, i64 %.121, i1 false)
  %66 = add nuw i64 %.02445.i, 1
  %exitcond.not.i = icmp eq i64 %66, %phi.call5457.i
  br i1 %exitcond.not.i, label %H5VM_stride_fill.exit, label %.lr.ph46.split.i

H5VM_stride_fill.exit:                            ; preds = %._crit_edge.us.i, %.lr.ph46.split.i, %H5VM_vector_reduce_product.exit.i
  call void @llvm.lifetime.end.p0(i64 264, ptr nonnull %7)
  ret i32 0
}